target datalayout = "e-m:e-p270:32:32-p271:32:32-p272:64:64-i64:64-i128:128-f80:128-n8:16:32:64-S128"
target triple = "x86_64-unknown-linux-gnu"

%struct.QemuTextConsole = type { %struct.QemuConsole, i32, i32, i32, i32, i32, i32, i32, i32, ptr, [2 x i32], [2 x i32], i32, i32, i32, i32, i32, i32, ptr, %struct.Fifo8 }
%struct.QemuConsole = type { %struct.Object, i32, ptr, ptr, %struct.DisplayScanout, i32, ptr, i32, ptr, i32, %struct.QemuUIInfo, ptr, ptr, ptr, %struct.CoQueue, %union.anon.0 }
%struct.Object = type { ptr, ptr, ptr, i32, ptr }
%struct.DisplayScanout = type { i32, %union.anon }
%union.anon = type { %struct.ScanoutTexture }
%struct.ScanoutTexture = type { i32, i8, i32, i32, i32, i32, i32, i32, ptr }
%struct.QemuUIInfo = type { i16, i16, i32, i32, i32, i32, i32 }
%struct.CoQueue = type { %struct.anon }
%struct.anon = type { ptr, ptr }
%union.anon.0 = type { %struct.QTailQLink }
%struct.QTailQLink = type { ptr, ptr }
%struct.Fifo8 = type { ptr, i32, i32, i32 }
%struct.Chardev = type { %struct.Object, %struct.QemuMutex, ptr, ptr, ptr, i32, i32, i8, ptr, ptr, [1 x i64] }
%struct.QemuMutex = type { %union.pthread_mutex_t, i8 }
%union.pthread_mutex_t = type { %struct.__pthread_mutex_s }
%struct.__pthread_mutex_s = type { i32, i32, i32, i32, i32, i16, i16, %struct.__pthread_internal_list }
%struct.__pthread_internal_list = type { ptr, ptr }
%struct.TextCell = type <{ i8, %struct.TextAttributes }>
%struct.TextAttributes = type { i16 }
%struct.VCChardev = type { %struct.Chardev, ptr, i32, [3 x i32], i32, %struct.TextAttributes, i32, i32 }

@.str.3 = private unnamed_addr constant [13 x i8] c"qemu-console\00", align 1
@.str.4 = private unnamed_addr constant [99 x i8] c"/home/dtcxzyw/WorkSpace/Projects/compilers/llvm-opt-benchmark/bench/qemu/qemu/include/ui/console.h\00", align 1
@__func__.QEMU_CONSOLE = private unnamed_addr constant [13 x i8] c"QEMU_CONSOLE\00", align 1

; Function Attrs: nounwind sspstrong uwtable
define internal void @invalidate_xy(ptr noundef %s, i32 noundef %x, i32 noundef %y) #0 {
entry:
  %s.addr = alloca ptr, align 8
  %x.addr = alloca i32, align 4
  %y.addr = alloca i32, align 4
  store ptr %s, ptr %s.addr, align 8
  store i32 %x, ptr %x.addr, align 4
  store i32 %y, ptr %y.addr, align 4
  %0 = load ptr, ptr %s.addr, align 8
  %call = call ptr @QEMU_CONSOLE(ptr noundef %0)
  %call1 = call zeroext i1 @qemu_console_is_visible(ptr noundef %call)
  br i1 %call1, label %if.end, label %if.then

if.then:                                          ; preds = %entry
  br label %if.end26

if.end:                                           ; preds = %entry
  %1 = load ptr, ptr %s.addr, align 8
  %update_x0 = getelementptr inbounds %struct.QemuTextConsole, ptr %1, i32 0, i32 14
  %2 = load i32, ptr %update_x0, align 8
  %3 = load i32, ptr %x.addr, align 4
  %mul = mul i32 %3, 8
  %cmp = icmp sgt i32 %2, %mul
  br i1 %cmp, label %if.then2, label %if.end5

if.then2:                                         ; preds = %if.end
  %4 = load i32, ptr %x.addr, align 4
  %mul3 = mul i32 %4, 8
  %5 = load ptr, ptr %s.addr, align 8
  %update_x04 = getelementptr inbounds %struct.QemuTextConsole, ptr %5, i32 0, i32 14
  store i32 %mul3, ptr %update_x04, align 8
  br label %if.end5

if.end5:                                          ; preds = %if.then2, %if.end
  %6 = load ptr, ptr %s.addr, align 8
  %update_y0 = getelementptr inbounds %struct.QemuTextConsole, ptr %6, i32 0, i32 15
  %7 = load i32, ptr %update_y0, align 4
  %8 = load i32, ptr %y.addr, align 4
  %mul6 = mul i32 %8, 16
  %cmp7 = icmp sgt i32 %7, %mul6
  br i1 %cmp7, label %if.then8, label %if.end11

if.then8:                                         ; preds = %if.end5
  %9 = load i32, ptr %y.addr, align 4
  %mul9 = mul i32 %9, 16
  %10 = load ptr, ptr %s.addr, align 8
  %update_y010 = getelementptr inbounds %struct.QemuTextConsole, ptr %10, i32 0, i32 15
  store i32 %mul9, ptr %update_y010, align 4
  br label %if.end11

if.end11:                                         ; preds = %if.then8, %if.end5
  %11 = load ptr, ptr %s.addr, align 8
  %update_x1 = getelementptr inbounds %struct.QemuTextConsole, ptr %11, i32 0, i32 16
  %12 = load i32, ptr %update_x1, align 8
  %13 = load i32, ptr %x.addr, align 4
  %add = add i32 %13, 1
  %mul12 = mul i32 %add, 8
  %cmp13 = icmp slt i32 %12, %mul12
  br i1 %cmp13, label %if.then14, label %if.end18

if.then14:                                        ; preds = %if.end11
  %14 = load i32, ptr %x.addr, align 4
  %add15 = add i32 %14, 1
  %mul16 = mul i32 %add15, 8
  %15 = load ptr, ptr %s.addr, align 8
  %update_x117 = getelementptr inbounds %struct.QemuTextConsole, ptr %15, i32 0, i32 16
  store i32 %mul16, ptr %update_x117, align 8
  br label %if.end18

if.end18:                                         ; preds = %if.then14, %if.end11
  %16 = load ptr, ptr %s.addr, align 8
  %update_y1 = getelementptr inbounds %struct.QemuTextConsole, ptr %16, i32 0, i32 17
  %17 = load i32, ptr %update_y1, align 4
  %18 = load i32, ptr %y.addr, align 4
  %add19 = add i32 %18, 1
  %mul20 = mul i32 %add19, 16
  %cmp21 = icmp slt i32 %17, %mul20
  br i1 %cmp21, label %if.then22, label %if.end26

if.then22:                                        ; preds = %if.end18
  %19 = load i32, ptr %y.addr, align 4
  %add23 = add i32 %19, 1
  %mul24 = mul i32 %add23, 16
  %20 = load ptr, ptr %s.addr, align 8
  %update_y125 = getelementptr inbounds %struct.QemuTextConsole, ptr %20, i32 0, i32 17
  store i32 %mul24, ptr %update_y125, align 4
  br label %if.end26

if.end26:                                         ; preds = %if.then22, %if.end18, %if.then
  ret void
}

; Function Attrs: nounwind sspstrong uwtable
define internal ptr @QEMU_CONSOLE(ptr noundef %obj) #0 {
entry:
  %obj.addr = alloca ptr, align 8
  store ptr %obj, ptr %obj.addr, align 8
  %0 = load ptr, ptr %obj.addr, align 8
  %call = call ptr @object_dynamic_cast_assert(ptr noundef %0, ptr noundef @.str.3, ptr noundef @.str.4, i32 noundef 12, ptr noundef @__func__.QEMU_CONSOLE)
  ret ptr %call
}

; Function Attrs: nounwind sspstrong uwtable
define internal void @vc_update_xy(ptr noundef %vc, i32 noundef %x, i32 noundef %y) #0 {
entry:
  %vc.addr = alloca ptr, align 8
  %x.addr = alloca i32, align 4
  %y.addr = alloca i32, align 4
  %s = alloca ptr, align 8
  %c = alloca ptr, align 8
  %y1 = alloca i32, align 4
  %y2 = alloca i32, align 4
  %_a6 = alloca i32, align 4
  %_b7 = alloca i32, align 4
  %tmp = alloca i32, align 4
  %_a8 = alloca i32, align 4
  %_b9 = alloca i32, align 4
  %tmp5 = alloca i32, align 4
  %_a10 = alloca i32, align 4
  %_b11 = alloca i32, align 4
  %tmp14 = alloca i32, align 4
  %_a12 = alloca i32, align 4
  %_b13 = alloca i32, align 4
  %tmp24 = alloca i32, align 4
  store ptr %vc, ptr %vc.addr, align 8
  store i32 %x, ptr %x.addr, align 4
  store i32 %y, ptr %y.addr, align 4
  %0 = load ptr, ptr %vc.addr, align 8
  %console = getelementptr inbounds %struct.VCChardev, ptr %0, i32 0, i32 1
  %1 = load ptr, ptr %console, align 8
  store ptr %1, ptr %s, align 8
  %2 = load ptr, ptr %s, align 8
  %text_x = getelementptr inbounds %struct.QemuTextConsole, ptr %2, i32 0, i32 10
  %arrayidx = getelementptr [2 x i32], ptr %text_x, i64 0, i64 0
  %3 = load i32, ptr %arrayidx, align 8
  store i32 %3, ptr %_a6, align 4
  %4 = load i32, ptr %x.addr, align 4
  store i32 %4, ptr %_b7, align 4
  %5 = load i32, ptr %_a6, align 4
  %6 = load i32, ptr %_b7, align 4
  %cmp = icmp slt i32 %5, %6
  br i1 %cmp, label %cond.true, label %cond.false

cond.true:                                        ; preds = %entry
  %7 = load i32, ptr %_a6, align 4
  br label %cond.end

cond.false:                                       ; preds = %entry
  %8 = load i32, ptr %_b7, align 4
  br label %cond.end

cond.end:                                         ; preds = %cond.false, %cond.true
  %cond = phi i32 [ %7, %cond.true ], [ %8, %cond.false ]
  store i32 %cond, ptr %tmp, align 4
  %9 = load i32, ptr %tmp, align 4
  %10 = load ptr, ptr %s, align 8
  %text_x1 = getelementptr inbounds %struct.QemuTextConsole, ptr %10, i32 0, i32 10
  %arrayidx2 = getelementptr [2 x i32], ptr %text_x1, i64 0, i64 0
  store i32 %9, ptr %arrayidx2, align 8
  %11 = load ptr, ptr %s, align 8
  %text_x3 = getelementptr inbounds %struct.QemuTextConsole, ptr %11, i32 0, i32 10
  %arrayidx4 = getelementptr [2 x i32], ptr %text_x3, i64 0, i64 1
  %12 = load i32, ptr %arrayidx4, align 4
  store i32 %12, ptr %_a8, align 4
  %13 = load i32, ptr %x.addr, align 4
  store i32 %13, ptr %_b9, align 4
  %14 = load i32, ptr %_a8, align 4
  %15 = load i32, ptr %_b9, align 4
  %cmp6 = icmp sgt i32 %14, %15
  br i1 %cmp6, label %cond.true7, label %cond.false8

cond.true7:                                       ; preds = %cond.end
  %16 = load i32, ptr %_a8, align 4
  br label %cond.end9

cond.false8:                                      ; preds = %cond.end
  %17 = load i32, ptr %_b9, align 4
  br label %cond.end9

cond.end9:                                        ; preds = %cond.false8, %cond.true7
  %cond10 = phi i32 [ %16, %cond.true7 ], [ %17, %cond.false8 ]
  store i32 %cond10, ptr %tmp5, align 4
  %18 = load i32, ptr %tmp5, align 4
  %19 = load ptr, ptr %s, align 8
  %text_x11 = getelementptr inbounds %struct.QemuTextConsole, ptr %19, i32 0, i32 10
  %arrayidx12 = getelementptr [2 x i32], ptr %text_x11, i64 0, i64 1
  store i32 %18, ptr %arrayidx12, align 4
  %20 = load ptr, ptr %s, align 8
  %text_y = getelementptr inbounds %struct.QemuTextConsole, ptr %20, i32 0, i32 11
  %arrayidx13 = getelementptr [2 x i32], ptr %text_y, i64 0, i64 0
  %21 = load i32, ptr %arrayidx13, align 8
  store i32 %21, ptr %_a10, align 4
  %22 = load i32, ptr %y.addr, align 4
  store i32 %22, ptr %_b11, align 4
  %23 = load i32, ptr %_a10, align 4
  %24 = load i32, ptr %_b11, align 4
  %cmp15 = icmp slt i32 %23, %24
  br i1 %cmp15, label %cond.true16, label %cond.false17

cond.true16:                                      ; preds = %cond.end9
  %25 = load i32, ptr %_a10, align 4
  br label %cond.end18

cond.false17:                                     ; preds = %cond.end9
  %26 = load i32, ptr %_b11, align 4
  br label %cond.end18

cond.end18:                                       ; preds = %cond.false17, %cond.true16
  %cond19 = phi i32 [ %25, %cond.true16 ], [ %26, %cond.false17 ]
  store i32 %cond19, ptr %tmp14, align 4
  %27 = load i32, ptr %tmp14, align 4
  %28 = load ptr, ptr %s, align 8
  %text_y20 = getelementptr inbounds %struct.QemuTextConsole, ptr %28, i32 0, i32 11
  %arrayidx21 = getelementptr [2 x i32], ptr %text_y20, i64 0, i64 0
  store i32 %27, ptr %arrayidx21, align 8
  %29 = load ptr, ptr %s, align 8
  %text_y22 = getelementptr inbounds %struct.QemuTextConsole, ptr %29, i32 0, i32 11
  %arrayidx23 = getelementptr [2 x i32], ptr %text_y22, i64 0, i64 1
  %30 = load i32, ptr %arrayidx23, align 4
  store i32 %30, ptr %_a12, align 4
  %31 = load i32, ptr %y.addr, align 4
  store i32 %31, ptr %_b13, align 4
  %32 = load i32, ptr %_a12, align 4
  %33 = load i32, ptr %_b13, align 4
  %cmp25 = icmp sgt i32 %32, %33
  br i1 %cmp25, label %cond.true26, label %cond.false27

cond.true26:                                      ; preds = %cond.end18
  %34 = load i32, ptr %_a12, align 4
  br label %cond.end28

cond.false27:                                     ; preds = %cond.end18
  %35 = load i32, ptr %_b13, align 4
  br label %cond.end28

cond.end28:                                       ; preds = %cond.false27, %cond.true26
  %cond29 = phi i32 [ %34, %cond.true26 ], [ %35, %cond.false27 ]
  store i32 %cond29, ptr %tmp24, align 4
  %36 = load i32, ptr %tmp24, align 4
  %37 = load ptr, ptr %s, align 8
  %text_y30 = getelementptr inbounds %struct.QemuTextConsole, ptr %37, i32 0, i32 11
  %arrayidx31 = getelementptr [2 x i32], ptr %text_y30, i64 0, i64 1
  store i32 %36, ptr %arrayidx31, align 4
  %38 = load ptr, ptr %s, align 8
  %y_base = getelementptr inbounds %struct.QemuTextConsole, ptr %38, i32 0, i32 8
  %39 = load i32, ptr %y_base, align 4
  %40 = load i32, ptr %y.addr, align 4
  %add = add i32 %39, %40
  %41 = load ptr, ptr %s, align 8
  %total_height = getelementptr inbounds %struct.QemuTextConsole, ptr %41, i32 0, i32 3
  %42 = load i32, ptr %total_height, align 8
  %rem = srem i32 %add, %42
  store i32 %rem, ptr %y1, align 4
  %43 = load i32, ptr %y1, align 4
  %44 = load ptr, ptr %s, align 8
  %y_displayed = getelementptr inbounds %struct.QemuTextConsole, ptr %44, i32 0, i32 7
  %45 = load i32, ptr %y_displayed, align 8
  %sub = sub i32 %43, %45
  store i32 %sub, ptr %y2, align 4
  %46 = load i32, ptr %y2, align 4
  %cmp32 = icmp slt i32 %46, 0
  br i1 %cmp32, label %if.then, label %if.end

if.then:                                          ; preds = %cond.end28
  %47 = load ptr, ptr %s, align 8
  %total_height33 = getelementptr inbounds %struct.QemuTextConsole, ptr %47, i32 0, i32 3
  %48 = load i32, ptr %total_height33, align 8
  %49 = load i32, ptr %y2, align 4
  %add34 = add i32 %49, %48
  store i32 %add34, ptr %y2, align 4
  br label %if.end

if.end:                                           ; preds = %if.then, %cond.end28
  %50 = load i32, ptr %y2, align 4
  %51 = load ptr, ptr %s, align 8
  %height = getelementptr inbounds %struct.QemuTextConsole, ptr %51, i32 0, i32 2
  %52 = load i32, ptr %height, align 4
  %cmp35 = icmp slt i32 %50, %52
  br i1 %cmp35, label %if.then36, label %if.end45

if.then36:                                        ; preds = %if.end
  %53 = load i32, ptr %x.addr, align 4
  %54 = load ptr, ptr %s, align 8
  %width = getelementptr inbounds %struct.QemuTextConsole, ptr %54, i32 0, i32 1
  %55 = load i32, ptr %width, align 8
  %cmp37 = icmp sge i32 %53, %55
  br i1 %cmp37, label %if.then38, label %if.end41

if.then38:                                        ; preds = %if.then36
  %56 = load ptr, ptr %s, align 8
  %width39 = getelementptr inbounds %struct.QemuTextConsole, ptr %56, i32 0, i32 1
  %57 = load i32, ptr %width39, align 8
  %sub40 = sub i32 %57, 1
  store i32 %sub40, ptr %x.addr, align 4
  br label %if.end41

if.end41:                                         ; preds = %if.then38, %if.then36
  %58 = load ptr, ptr %s, align 8
  %cells = getelementptr inbounds %struct.QemuTextConsole, ptr %58, i32 0, i32 9
  %59 = load ptr, ptr %cells, align 8
  %60 = load i32, ptr %y1, align 4
  %61 = load ptr, ptr %s, align 8
  %width42 = getelementptr inbounds %struct.QemuTextConsole, ptr %61, i32 0, i32 1
  %62 = load i32, ptr %width42, align 8
  %mul = mul i32 %60, %62
  %63 = load i32, ptr %x.addr, align 4
  %add43 = add i32 %mul, %63
  %idxprom = sext i32 %add43 to i64
  %arrayidx44 = getelementptr %struct.TextCell, ptr %59, i64 %idxprom
  store ptr %arrayidx44, ptr %c, align 8
  %64 = load ptr, ptr %s, align 8
  %call = call ptr @QEMU_CONSOLE(ptr noundef %64)
  %65 = load i32, ptr %x.addr, align 4
  %66 = load i32, ptr %y2, align 4
  %67 = load ptr, ptr %c, align 8
  %ch = getelementptr inbounds %struct.TextCell, ptr %67, i32 0, i32 0
  %68 = load i8, ptr %ch, align 1
  %conv = zext i8 %68 to i32
  %69 = load ptr, ptr %c, align 8
  %t_attrib = getelementptr inbounds %struct.TextCell, ptr %69, i32 0, i32 1
  call void @vga_putcharxy(ptr noundef %call, i32 noundef %65, i32 noundef %66, i32 noundef %conv, ptr noundef %t_attrib)
  %70 = load ptr, ptr %s, align 8
  %71 = load i32, ptr %x.addr, align 4
  %72 = load i32, ptr %y2, align 4
  call void @invalidate_xy(ptr noundef %70, i32 noundef %71, i32 noundef %72)
  br label %if.end45

if.end45:                                         ; preds = %if.end41, %if.end
  ret void
}