; Function Attrs: nounwind sspstrong uwtable
define internal fastcc void @vc_update_xy(ptr %vc.152.val, i32 noundef %x, i32 noundef %y) unnamed_addr #0 {
entry:
  %text_x = getelementptr inbounds nuw i8, ptr %vc.152.val, i64 272
  %0 = load i32, ptr %text_x, align 8
  %cond = tail call i32 @llvm.smin.i32(i32 %0, i32 %x)
  store i32 %cond, ptr %text_x, align 8
  %arrayidx4 = getelementptr i8, ptr %vc.152.val, i64 276
  %1 = load i32, ptr %arrayidx4, align 4
  %cond10 = tail call i32 @llvm.smax.i32(i32 %1, i32 %x)
  store i32 %cond10, ptr %arrayidx4, align 4
  %text_y = getelementptr inbounds nuw i8, ptr %vc.152.val, i64 280
  %2 = load i32, ptr %text_y, align 8
  %cond19 = tail call i32 @llvm.smin.i32(i32 %2, i32 %y)
  store i32 %cond19, ptr %text_y, align 8
  %arrayidx23 = getelementptr i8, ptr %vc.152.val, i64 284
  %3 = load i32, ptr %arrayidx23, align 4
  %cond29 = tail call i32 @llvm.smax.i32(i32 %3, i32 %y)
  store i32 %cond29, ptr %arrayidx23, align 4
  %y_base = getelementptr inbounds nuw i8, ptr %vc.152.val, i64 260
  %4 = load i32, ptr %y_base, align 4
  %add = add i32 %4, %y
  %total_height = getelementptr inbounds nuw i8, ptr %vc.152.val, i64 240
  %5 = load i32, ptr %total_height, align 8
  %rem = srem i32 %add, %5
  %y_displayed = getelementptr inbounds nuw i8, ptr %vc.152.val, i64 256
  %6 = load i32, ptr %y_displayed, align 8
  %sub = sub i32 %rem, %6
  %cmp32 = icmp slt i32 %sub, 0
  %add34 = select i1 %cmp32, i32 %5, i32 0
  %spec.select = add i32 %add34, %sub
  %height = getelementptr inbounds nuw i8, ptr %vc.152.val, i64 236
  %7 = load i32, ptr %height, align 4
  %cmp35 = icmp slt i32 %spec.select, %7
  br i1 %cmp35, label %if.then36, label %if.end45

if.then36:                                        ; preds = %entry
  %width = getelementptr inbounds nuw i8, ptr %vc.152.val, i64 232
  %8 = load i32, ptr %width, align 8
  %cmp37.not = icmp slt i32 %x, %8
  %sub40 = add i32 %8, -1
  %spec.select40 = select i1 %cmp37.not, i32 %x, i32 %sub40
  %cells = getelementptr inbounds nuw i8, ptr %vc.152.val, i64 264
  %9 = load ptr, ptr %cells, align 8
  %mul = mul i32 %8, %rem
  %add43 = add i32 %spec.select40, %mul
  %idxprom = sext i32 %add43 to i64
  %arrayidx44 = getelementptr %struct.TextCell, ptr %9, i64 %idxprom
  %call.i = tail call ptr @object_dynamic_cast_assert(ptr noundef nonnull %vc.152.val, ptr noundef nonnull @.str.3, ptr noundef nonnull @.str.4, i32 noundef 12, ptr noundef nonnull @__func__.QEMU_CONSOLE) #12
  %10 = load i8, ptr %arrayidx44, align 1
  %conv = zext i8 %10 to i32
  %t_attrib = getelementptr inbounds nuw i8, ptr %arrayidx44, i64 1
  tail call fastcc void @vga_putcharxy(ptr noundef %call.i, i32 noundef %spec.select40, i32 noundef %spec.select, i32 noundef %conv, ptr noundef nonnull %t_attrib)
  %call.i.i = tail call ptr @object_dynamic_cast_assert(ptr noundef nonnull %vc.152.val, ptr noundef nonnull @.str.3, ptr noundef nonnull @.str.4, i32 noundef 12, ptr noundef nonnull @__func__.QEMU_CONSOLE) #12
  %call1.i = tail call zeroext i1 @qemu_console_is_visible(ptr noundef %call.i.i) #12
  br i1 %call1.i, label %if.end.i, label %if.end45

if.end.i:                                         ; preds = %if.then36
  %update_x0.i = getelementptr inbounds nuw i8, ptr %vc.152.val, i64 296
  %11 = load i32, ptr %update_x0.i, align 8
  %mul.i = shl i32 %spec.select40, 3
  %cmp.i = icmp sgt i32 %11, %mul.i
  br i1 %cmp.i, label %if.then2.i, label %if.end5.i

if.then2.i:                                       ; preds = %if.end.i
  store i32 %mul.i, ptr %update_x0.i, align 8
  br label %if.end5.i

if.end5.i:                                        ; preds = %if.then2.i, %if.end.i
  %update_y0.i = getelementptr inbounds nuw i8, ptr %vc.152.val, i64 300
  %12 = load i32, ptr %update_y0.i, align 4
  %mul6.i = shl i32 %spec.select, 4
  %cmp7.i = icmp sgt i32 %12, %mul6.i
  br i1 %cmp7.i, label %if.then8.i, label %if.end11.i

if.then8.i:                                       ; preds = %if.end5.i
  store i32 %mul6.i, ptr %update_y0.i, align 4
  br label %if.end11.i

if.end11.i:                                       ; preds = %if.then8.i, %if.end5.i
  %update_x1.i = getelementptr inbounds nuw i8, ptr %vc.152.val, i64 304
  %13 = load i32, ptr %update_x1.i, align 8
  %mul12.i = add i32 %mul.i, 8
  %cmp13.i = icmp slt i32 %13, %mul12.i
  br i1 %cmp13.i, label %if.then14.i, label %if.end18.i

if.then14.i:                                      ; preds = %if.end11.i
  store i32 %mul12.i, ptr %update_x1.i, align 8
  br label %if.end18.i

if.end18.i:                                       ; preds = %if.then14.i, %if.end11.i
  %update_y1.i = getelementptr inbounds nuw i8, ptr %vc.152.val, i64 308
  %14 = load i32, ptr %update_y1.i, align 4
  %mul20.i = add i32 %mul6.i, 16
  %cmp21.i = icmp slt i32 %14, %mul20.i
  br i1 %cmp21.i, label %if.then22.i, label %if.end45

if.then22.i:                                      ; preds = %if.end18.i
  store i32 %mul20.i, ptr %update_y1.i, align 4
  br label %if.end45

if.end45:                                         ; preds = %if.then22.i, %if.end18.i, %if.then36, %entry
  ret void
}